; Function Attrs: null_pointer_is_valid sspstrong uwtable
define internal noundef i32 @dissect_nfs3_access_reply(ptr noundef %0, ptr noundef readonly captures(none) %1, ptr noundef %2, ptr noundef readonly captures(none) %3) #0 {
  %5 = alloca ptr, align 8
  %6 = tail call i32 @tvb_get_ntohl(ptr noundef %0, i32 noundef 0)
  %.not.i = icmp eq ptr %2, null
  br i1 %.not.i, label %dissect_nfs3_status.exit, label %7

7:                                                ; preds = %4
  %8 = load i32, ptr @hf_nfs3_status, align 4
  %9 = tail call ptr @proto_tree_add_uint(ptr noundef nonnull %2, i32 noundef %8, ptr noundef %0, i32 noundef 0, i32 noundef 4, i32 noundef %6)
  %10 = load i32, ptr @hf_nfs_status, align 4
  %11 = tail call ptr @proto_tree_add_uint(ptr noundef nonnull %2, i32 noundef %10, ptr noundef %0, i32 noundef 0, i32 noundef 4, i32 noundef %6)
  %.not.i.i = icmp eq ptr %11, null
  br i1 %.not.i.i, label %dissect_nfs3_status.exit, label %12

12:                                               ; preds = %7
  %13 = getelementptr inbounds nuw i8, ptr %11, i64 40
  %14 = load ptr, ptr %13, align 8
  %.not5.i.i = icmp eq ptr %14, null
  br i1 %.not5.i.i, label %dissect_nfs3_status.exit, label %15

15:                                               ; preds = %12
  %16 = getelementptr inbounds nuw i8, ptr %14, i64 28
  %17 = load i32, ptr %16, align 4
  %18 = or i32 %17, 1
  store i32 %18, ptr %16, align 4
  br label %dissect_nfs3_status.exit

dissect_nfs3_status.exit:                         ; preds = %4, %7, %12, %15
  call void @llvm.lifetime.start.p0(i64 8, ptr nonnull %5) #22
  %19 = tail call i32 @tvb_get_ntohl(ptr noundef %0, i32 noundef 4)
  %20 = load i32, ptr @ett_nfs3_post_op_attr, align 4
  %21 = call ptr @proto_tree_add_subtree(ptr noundef %2, ptr noundef %0, i32 noundef 4, i32 noundef -1, i32 noundef %20, ptr noundef nonnull %5, ptr noundef nonnull @.str.2294)
  %22 = load i32, ptr @hf_nfs3_attributes_follow, align 4
  %23 = call ptr @proto_tree_add_uint(ptr noundef %21, i32 noundef %22, ptr noundef %0, i32 noundef 4, i32 noundef 4, i32 noundef %19)
  %cond.i = icmp eq i32 %19, 1
  br i1 %cond.i, label %24, label %dissect_nfs3_post_op_attr.exit

24:                                               ; preds = %dissect_nfs3_status.exit
  %25 = call fastcc i32 @dissect_nfs_fattr3(ptr noundef readonly %1, ptr noundef %0, i32 noundef 8, ptr noundef %21, ptr noundef nonnull @.str, i32 noundef 2)
  br label %dissect_nfs3_post_op_attr.exit

dissect_nfs3_post_op_attr.exit:                   ; preds = %dissect_nfs3_status.exit, %24
  %.0.i = phi i32 [ %25, %24 ], [ 8, %dissect_nfs3_status.exit ]
  %26 = load ptr, ptr %5, align 8
  %27 = add i32 %.0.i, -4
  call void @proto_item_set_len(ptr noundef %26, i32 noundef %27)
  call void @llvm.lifetime.end.p0(i64 8, ptr nonnull %5) #22
  %28 = icmp eq i32 %6, 0
  br i1 %28, label %29, label %31

29:                                               ; preds = %dissect_nfs3_post_op_attr.exit
  call void (ptr, ptr, ...) @proto_item_append_text(ptr noundef %2, ptr noundef nonnull @.str.2310)
  %30 = call i32 @dissect_access_reply(ptr noundef %0, i32 noundef %.0.i, ptr noundef %1, ptr noundef %2, i32 noundef 3, ptr noundef null, ptr noundef %3)
  br label %35

31:                                               ; preds = %dissect_nfs3_post_op_attr.exit
  %32 = call ptr @val_to_str_ext(i32 noundef %6, ptr noundef nonnull @names_nfs3_status_ext, ptr noundef nonnull @.str.2241)
  %33 = getelementptr inbounds nuw i8, ptr %1, i64 8
  %34 = load ptr, ptr %33, align 8
  call void (ptr, i32, ptr, ...) @col_append_fstr(ptr noundef %34, i32 noundef 25, ptr noundef nonnull @.str.2242, ptr noundef %32)
  call void (ptr, ptr, ...) @proto_item_append_text(ptr noundef %2, ptr noundef nonnull @.str.2311, ptr noundef %32)
  br label %35

35:                                               ; preds = %31, %29
  %.0 = phi i32 [ %30, %29 ], [ %.0.i, %31 ]
  ret i32 %.0
}